; Function Attrs: nounwind uwtable
define internal void @gzip_do_close(ptr noundef %0, ptr noundef %1) #0 {
  %3 = getelementptr inbounds nuw i8, ptr %1, i64 32
  %4 = load i32, ptr %3, align 4, !tbaa !101
  %.not.i = icmp eq i32 %4, 0
  br i1 %.not.i, label %exit_zlib.exit, label %5

5:                                                ; preds = %2
  %6 = getelementptr inbounds nuw i8, ptr %1, i64 16424
  %7 = tail call i32 @inflateEnd(ptr noundef nonnull %6) #8
  %.not = icmp eq i32 %7, 0
  br i1 %.not, label %process_zlib_error.exit.i, label %8

8:                                                ; preds = %5
  %9 = getelementptr i8, ptr %1, i64 16472
  %.val.i = load ptr, ptr %9, align 8, !tbaa !94
  %.not.i.i = icmp eq ptr %.val.i, null
  br i1 %.not.i.i, label %11, label %10

10:                                               ; preds = %8
  tail call void (ptr, ptr, ...) @Curl_failf(ptr noundef %0, ptr noundef nonnull @.str.13, ptr noundef nonnull %.val.i) #8
  br label %process_zlib_error.exit.i

11:                                               ; preds = %8
  tail call void (ptr, ptr, ...) @Curl_failf(ptr noundef %0, ptr noundef nonnull @.str.14) #8
  br label %process_zlib_error.exit.i

process_zlib_error.exit.i:                        ; preds = %11, %10, %5
  store i32 0, ptr %3, align 4, !tbaa !101
  br label %exit_zlib.exit

exit_zlib.exit:                                   ; preds = %2, %process_zlib_error.exit.i
  ret void
}